target datalayout = "e-m:e-p270:32:32-p271:32:32-p272:64:64-i64:64-i128:128-f80:128-n8:16:32:64-S128"
target triple = "x86_64-unknown-linux-gnu"

%"struct.std::__detail::_Hash_node_base" = type { ptr }
%"struct.std::__detail::_Prime_rehash_policy" = type { float, i64 }
%"class.std::__cxx11::basic_string" = type { %"struct.std::__cxx11::basic_string<char>::_Alloc_hider", i64, %union.anon }
%"struct.std::__cxx11::basic_string<char>::_Alloc_hider" = type { ptr }
%union.anon = type { i64, [8 x i8] }
%"class.std::unordered_map.413" = type { %"class.std::_Hashtable.414" }
%"class.std::_Hashtable.414" = type { ptr, i64, %"struct.std::__detail::_Hash_node_base", i64, %"struct.std::__detail::_Prime_rehash_policy", ptr }
%"class.std::initializer_list.760" = type { ptr, i64 }
%"struct.std::pair.761" = type { i32, %"class.std::__cxx11::basic_string" }
%"struct.std::hash.418" = type { i8 }
%"struct.std::equal_to.422" = type { i8 }
%"class.std::allocator.763" = type { i8 }

@.str.105 = private unnamed_addr constant [7 x i8] c"GATHER\00", align 1
@.str.106 = private unnamed_addr constant [12 x i8] c"REPARTITION\00", align 1

; Function Attrs: mustprogress nounwind uwtable
define linkonce_odr noundef i64 @_ZNKSt16initializer_listISt4pairIKN8facebook5velox4core18LocalPartitionNode4TypeENSt7__cxx1112basic_stringIcSt11char_traitsIcESaIcEEEEE4sizeEv(ptr noundef nonnull align 8 dereferenceable(16) %this) #1 comdat align 2 {
entry:
  %this.addr = alloca ptr, align 8
  store ptr %this, ptr %this.addr, align 8
  %this1 = load ptr, ptr %this.addr, align 8
  %_M_len = getelementptr inbounds %"class.std::initializer_list.760", ptr %this1, i32 0, i32 1
  %0 = load i64, ptr %_M_len, align 8
  ret i64 %0
}

; Function Attrs: mustprogress nounwind uwtable
define linkonce_odr noundef ptr @_ZNKSt16initializer_listISt4pairIKN8facebook5velox4core18LocalPartitionNode4TypeENSt7__cxx1112basic_stringIcSt11char_traitsIcESaIcEEEEE3endEv(ptr noundef nonnull align 8 dereferenceable(16) %this) #1 comdat align 2 {
entry:
  %this.addr = alloca ptr, align 8
  store ptr %this, ptr %this.addr, align 8
  %this1 = load ptr, ptr %this.addr, align 8
  %call = call noundef ptr @_ZNKSt16initializer_listISt4pairIKN8facebook5velox4core18LocalPartitionNode4TypeENSt7__cxx1112basic_stringIcSt11char_traitsIcESaIcEEEEE5beginEv(ptr noundef nonnull align 8 dereferenceable(16) %this1) #5
  %call2 = call noundef i64 @_ZNKSt16initializer_listISt4pairIKN8facebook5velox4core18LocalPartitionNode4TypeENSt7__cxx1112basic_stringIcSt11char_traitsIcESaIcEEEEE4sizeEv(ptr noundef nonnull align 8 dereferenceable(16) %this1) #5
  %add.ptr = getelementptr inbounds %"struct.std::pair.761", ptr %call, i64 %call2
  ret ptr %add.ptr
}

; Function Attrs: mustprogress nounwind uwtable
define linkonce_odr noundef ptr @_ZNKSt16initializer_listISt4pairIKN8facebook5velox4core18LocalPartitionNode4TypeENSt7__cxx1112basic_stringIcSt11char_traitsIcESaIcEEEEE5beginEv(ptr noundef nonnull align 8 dereferenceable(16) %this) #1 comdat align 2 {
entry:
  %this.addr = alloca ptr, align 8
  store ptr %this, ptr %this.addr, align 8
  %this1 = load ptr, ptr %this.addr, align 8
  %_M_array = getelementptr inbounds %"class.std::initializer_list.760", ptr %this1, i32 0, i32 0
  %0 = load ptr, ptr %_M_array, align 8
  ret ptr %0
}

; Function Attrs: mustprogress nounwind uwtable
define linkonce_odr void @_ZNSt15__new_allocatorISt4pairIKN8facebook5velox4core18LocalPartitionNode4TypeENSt7__cxx1112basic_stringIcSt11char_traitsIcESaIcEEEEED2Ev(ptr noundef nonnull align 1 dereferenceable(1) %this) unnamed_addr #1 comdat align 2 {
entry:
  %this.addr = alloca ptr, align 8
  store ptr %this, ptr %this.addr, align 8
  ret void
}

; Function Attrs: mustprogress uwtable
define linkonce_odr void @_ZNSt10_HashtableIN8facebook5velox4core18LocalPartitionNode4TypeESt4pairIKS4_NSt7__cxx1112basic_stringIcSt11char_traitsIcESaIcEEEESaISD_ENSt8__detail10_Select1stESt8equal_toIS4_ESt4hashIS4_ENSF_18_Mod_range_hashingENSF_20_Default_ranged_hashENSF_20_Prime_rehash_policyENSF_17_Hashtable_traitsILb0ELb0ELb1EEEEC2ESt16initializer_listISD_EmRKSK_RKSI_RKSE_(ptr noundef nonnull align 8 dereferenceable(56) %this, ptr %__l.coerce0, i64 %__l.coerce1, i64 noundef %__bkt_count_hint, ptr noundef nonnull align 1 dereferenceable(1) %__hf, ptr noundef nonnull align 1 dereferenceable(1) %__eql, ptr noundef nonnull align 1 dereferenceable(1) %__a) unnamed_addr #2 comdat align 2 {
entry:
  %__l = alloca %"class.std::initializer_list.760", align 8
  %this.addr = alloca ptr, align 8
  %__bkt_count_hint.addr = alloca i64, align 8
  %__hf.addr = alloca ptr, align 8
  %__eql.addr = alloca ptr, align 8
  %__a.addr = alloca ptr, align 8
  %0 = getelementptr inbounds { ptr, i64 }, ptr %__l, i32 0, i32 0
  store ptr %__l.coerce0, ptr %0, align 8
  %1 = getelementptr inbounds { ptr, i64 }, ptr %__l, i32 0, i32 1
  store i64 %__l.coerce1, ptr %1, align 8
  store ptr %this, ptr %this.addr, align 8
  store i64 %__bkt_count_hint, ptr %__bkt_count_hint.addr, align 8
  store ptr %__hf, ptr %__hf.addr, align 8
  store ptr %__eql, ptr %__eql.addr, align 8
  store ptr %__a, ptr %__a.addr, align 8
  %this1 = load ptr, ptr %this.addr, align 8
  %call = call noundef ptr @_ZNKSt16initializer_listISt4pairIKN8facebook5velox4core18LocalPartitionNode4TypeENSt7__cxx1112basic_stringIcSt11char_traitsIcESaIcEEEEE5beginEv(ptr noundef nonnull align 8 dereferenceable(16) %__l) #5
  %call2 = call noundef ptr @_ZNKSt16initializer_listISt4pairIKN8facebook5velox4core18LocalPartitionNode4TypeENSt7__cxx1112basic_stringIcSt11char_traitsIcESaIcEEEEE3endEv(ptr noundef nonnull align 8 dereferenceable(16) %__l) #5
  %2 = load i64, ptr %__bkt_count_hint.addr, align 8
  %3 = load ptr, ptr %__hf.addr, align 8
  %4 = load ptr, ptr %__eql.addr, align 8
  %5 = load ptr, ptr %__a.addr, align 8
  call void @_ZNSt10_HashtableIN8facebook5velox4core18LocalPartitionNode4TypeESt4pairIKS4_NSt7__cxx1112basic_stringIcSt11char_traitsIcESaIcEEEESaISD_ENSt8__detail10_Select1stESt8equal_toIS4_ESt4hashIS4_ENSF_18_Mod_range_hashingENSF_20_Default_ranged_hashENSF_20_Prime_rehash_policyENSF_17_Hashtable_traitsILb0ELb0ELb1EEEEC2IPKSD_EET_SU_mRKSK_RKSI_RKSE_St17integral_constantIbLb1EE(ptr noundef nonnull align 8 dereferenceable(56) %this1, ptr noundef %call, ptr noundef %call2, i64 noundef %2, ptr noundef nonnull align 1 dereferenceable(1) %3, ptr noundef nonnull align 1 dereferenceable(1) %4, ptr noundef nonnull align 1 dereferenceable(1) %5)
  ret void
}

; Function Attrs: mustprogress nounwind uwtable
define linkonce_odr void @_ZNSt15__new_allocatorISt4pairIKN8facebook5velox4core18LocalPartitionNode4TypeENSt7__cxx1112basic_stringIcSt11char_traitsIcESaIcEEEEEC2Ev(ptr noundef nonnull align 1 dereferenceable(1) %this) unnamed_addr #1 comdat align 2 {
entry:
  %this.addr = alloca ptr, align 8
  store ptr %this, ptr %this.addr, align 8
  ret void
}

; Function Attrs: mustprogress nounwind uwtable
define linkonce_odr void @_ZNSt4pairIKN8facebook5velox4core18LocalPartitionNode4TypeENSt7__cxx1112basic_stringIcSt11char_traitsIcESaIcEEEED2Ev(ptr noundef nonnull align 8 dereferenceable(40) %this) unnamed_addr #1 comdat align 2 {
entry:
  %this.addr = alloca ptr, align 8
  store ptr %this, ptr %this.addr, align 8
  %this1 = load ptr, ptr %this.addr, align 8
  %second = getelementptr inbounds %"struct.std::pair.761", ptr %this1, i32 0, i32 1
  call void @_ZNSt7__cxx1112basic_stringIcSt11char_traitsIcESaIcEED1Ev(ptr noundef nonnull align 8 dereferenceable(32) %second) #5
  ret void
}

; Function Attrs: mustprogress nounwind uwtable
define linkonce_odr void @_ZNSaISt4pairIKN8facebook5velox4core18LocalPartitionNode4TypeENSt7__cxx1112basic_stringIcSt11char_traitsIcESaIcEEEEED2Ev(ptr noundef nonnull align 1 dereferenceable(1) %this) unnamed_addr #1 comdat align 2 {
entry:
  %this.addr = alloca ptr, align 8
  store ptr %this, ptr %this.addr, align 8
  %this1 = load ptr, ptr %this.addr, align 8
  call void @_ZNSt15__new_allocatorISt4pairIKN8facebook5velox4core18LocalPartitionNode4TypeENSt7__cxx1112basic_stringIcSt11char_traitsIcESaIcEEEEED2Ev(ptr noundef nonnull align 1 dereferenceable(1) %this1) #5
  ret void
}

; Function Attrs: mustprogress uwtable
define linkonce_odr void @_ZNSt13unordered_mapIN8facebook5velox4core18LocalPartitionNode4TypeENSt7__cxx1112basic_stringIcSt11char_traitsIcESaIcEEESt4hashIS4_ESt8equal_toIS4_ESaISt4pairIKS4_SA_EEEC2ESt16initializer_listISH_EmRKSC_RKSE_RKSI_(ptr noundef nonnull align 8 dereferenceable(56) %this, ptr %__l.coerce0, i64 %__l.coerce1, i64 noundef %__n, ptr noundef nonnull align 1 dereferenceable(1) %__hf, ptr noundef nonnull align 1 dereferenceable(1) %__eql, ptr noundef nonnull align 1 dereferenceable(1) %__a) unnamed_addr #2 comdat align 2 {
entry:
  %__l = alloca %"class.std::initializer_list.760", align 8
  %this.addr = alloca ptr, align 8
  %__n.addr = alloca i64, align 8
  %__hf.addr = alloca ptr, align 8
  %__eql.addr = alloca ptr, align 8
  %__a.addr = alloca ptr, align 8
  %agg.tmp = alloca %"class.std::initializer_list.760", align 8
  %0 = getelementptr inbounds { ptr, i64 }, ptr %__l, i32 0, i32 0
  store ptr %__l.coerce0, ptr %0, align 8
  %1 = getelementptr inbounds { ptr, i64 }, ptr %__l, i32 0, i32 1
  store i64 %__l.coerce1, ptr %1, align 8
  store ptr %this, ptr %this.addr, align 8
  store i64 %__n, ptr %__n.addr, align 8
  store ptr %__hf, ptr %__hf.addr, align 8
  store ptr %__eql, ptr %__eql.addr, align 8
  store ptr %__a, ptr %__a.addr, align 8
  %this1 = load ptr, ptr %this.addr, align 8
  %_M_h = getelementptr inbounds %"class.std::unordered_map.413", ptr %this1, i32 0, i32 0
  call void @llvm.memcpy.p0.p0.i64(ptr align 8 %agg.tmp, ptr align 8 %__l, i64 16, i1 false)
  %2 = load i64, ptr %__n.addr, align 8
  %3 = load ptr, ptr %__hf.addr, align 8
  %4 = load ptr, ptr %__eql.addr, align 8
  %5 = load ptr, ptr %__a.addr, align 8
  %6 = getelementptr inbounds { ptr, i64 }, ptr %agg.tmp, i32 0, i32 0
  %7 = load ptr, ptr %6, align 8
  %8 = getelementptr inbounds { ptr, i64 }, ptr %agg.tmp, i32 0, i32 1
  %9 = load i64, ptr %8, align 8
  call void @_ZNSt10_HashtableIN8facebook5velox4core18LocalPartitionNode4TypeESt4pairIKS4_NSt7__cxx1112basic_stringIcSt11char_traitsIcESaIcEEEESaISD_ENSt8__detail10_Select1stESt8equal_toIS4_ESt4hashIS4_ENSF_18_Mod_range_hashingENSF_20_Default_ranged_hashENSF_20_Prime_rehash_policyENSF_17_Hashtable_traitsILb0ELb0ELb1EEEEC2ESt16initializer_listISD_EmRKSK_RKSI_RKSE_(ptr noundef nonnull align 8 dereferenceable(56) %_M_h, ptr %7, i64 %9, i64 noundef %2, ptr noundef nonnull align 1 dereferenceable(1) %3, ptr noundef nonnull align 1 dereferenceable(1) %4, ptr noundef nonnull align 1 dereferenceable(1) %5)
  ret void
}

; Function Attrs: mustprogress nounwind uwtable
define linkonce_odr void @_ZNSaISt4pairIKN8facebook5velox4core18LocalPartitionNode4TypeENSt7__cxx1112basic_stringIcSt11char_traitsIcESaIcEEEEEC2Ev(ptr noundef nonnull align 1 dereferenceable(1) %this) unnamed_addr #1 comdat align 2 {
entry:
  %this.addr = alloca ptr, align 8
  store ptr %this, ptr %this.addr, align 8
  %this1 = load ptr, ptr %this.addr, align 8
  call void @_ZNSt15__new_allocatorISt4pairIKN8facebook5velox4core18LocalPartitionNode4TypeENSt7__cxx1112basic_stringIcSt11char_traitsIcESaIcEEEEEC2Ev(ptr noundef nonnull align 1 dereferenceable(1) %this1) #5
  ret void
}

; Function Attrs: mustprogress uwtable
define internal void @_ZN8facebook5velox4core12_GLOBAL__N_123localPartitionTypeNamesB5cxx11Ev(ptr noalias sret(%"class.std::unordered_map.413") align 8 %agg.result) #2 personality ptr @__gxx_personality_v0 {
entry:
  %result.ptr = alloca ptr, align 8
  %agg.tmp = alloca %"class.std::initializer_list.760", align 8
  %ref.tmp = alloca [2 x %"struct.std::pair.761"], align 8
  %arrayinit.endOfInit = alloca ptr, align 8
  %ref.tmp1 = alloca i32, align 4
  %exn.slot = alloca ptr, align 8
  %ehselector.slot = alloca i32, align 4
  %ref.tmp2 = alloca i32, align 4
  %ref.tmp5 = alloca %"struct.std::hash.418", align 1
  %ref.tmp6 = alloca %"struct.std::equal_to.422", align 1
  %ref.tmp7 = alloca %"class.std::allocator.763", align 1
  store ptr %agg.result, ptr %result.ptr, align 8
  %arrayinit.begin = getelementptr inbounds [2 x %"struct.std::pair.761"], ptr %ref.tmp, i64 0, i64 0
  store ptr %arrayinit.begin, ptr %arrayinit.endOfInit, align 8
  store i32 0, ptr %ref.tmp1, align 4
  invoke void @_ZNSt4pairIKN8facebook5velox4core18LocalPartitionNode4TypeENSt7__cxx1112basic_stringIcSt11char_traitsIcESaIcEEEEC2IS4_RA7_KcTnNSt9enable_ifIXaaclsr5_PCCPE22_MoveConstructiblePairIT_T0_EEclsr5_PCCPE30_ImplicitlyMoveConvertiblePairISI_SJ_EEEbE4typeELb1EEEOSI_OSJ_(ptr noundef nonnull align 8 dereferenceable(40) %arrayinit.begin, ptr noundef nonnull align 4 dereferenceable(4) %ref.tmp1, ptr noundef nonnull align 1 dereferenceable(7) @.str.105)
          to label %invoke.cont unwind label %lpad

invoke.cont:                                      ; preds = %entry
  %arrayinit.element = getelementptr inbounds %"struct.std::pair.761", ptr %arrayinit.begin, i64 1
  store ptr %arrayinit.element, ptr %arrayinit.endOfInit, align 8
  store i32 1, ptr %ref.tmp2, align 4
  invoke void @_ZNSt4pairIKN8facebook5velox4core18LocalPartitionNode4TypeENSt7__cxx1112basic_stringIcSt11char_traitsIcESaIcEEEEC2IS4_RA12_KcTnNSt9enable_ifIXaaclsr5_PCCPE22_MoveConstructiblePairIT_T0_EEclsr5_PCCPE30_ImplicitlyMoveConvertiblePairISI_SJ_EEEbE4typeELb1EEEOSI_OSJ_(ptr noundef nonnull align 8 dereferenceable(40) %arrayinit.element, ptr noundef nonnull align 4 dereferenceable(4) %ref.tmp2, ptr noundef nonnull align 1 dereferenceable(12) @.str.106)
          to label %invoke.cont3 unwind label %lpad

invoke.cont3:                                     ; preds = %invoke.cont
  %_M_array = getelementptr inbounds %"class.std::initializer_list.760", ptr %agg.tmp, i32 0, i32 0
  %arraystart = getelementptr inbounds [2 x %"struct.std::pair.761"], ptr %ref.tmp, i64 0, i64 0
  store ptr %arraystart, ptr %_M_array, align 8
  %_M_len = getelementptr inbounds %"class.std::initializer_list.760", ptr %agg.tmp, i32 0, i32 1
  store i64 2, ptr %_M_len, align 8
  call void @_ZNSaISt4pairIKN8facebook5velox4core18LocalPartitionNode4TypeENSt7__cxx1112basic_stringIcSt11char_traitsIcESaIcEEEEEC2Ev(ptr noundef nonnull align 1 dereferenceable(1) %ref.tmp7) #5
  %0 = getelementptr inbounds { ptr, i64 }, ptr %agg.tmp, i32 0, i32 0
  %1 = load ptr, ptr %0, align 8
  %2 = getelementptr inbounds { ptr, i64 }, ptr %agg.tmp, i32 0, i32 1
  %3 = load i64, ptr %2, align 8
  invoke void @_ZNSt13unordered_mapIN8facebook5velox4core18LocalPartitionNode4TypeENSt7__cxx1112basic_stringIcSt11char_traitsIcESaIcEEESt4hashIS4_ESt8equal_toIS4_ESaISt4pairIKS4_SA_EEEC2ESt16initializer_listISH_EmRKSC_RKSE_RKSI_(ptr noundef nonnull align 8 dereferenceable(56) %agg.result, ptr %1, i64 %3, i64 noundef 0, ptr noundef nonnull align 1 dereferenceable(1) %ref.tmp5, ptr noundef nonnull align 1 dereferenceable(1) %ref.tmp6, ptr noundef nonnull align 1 dereferenceable(1) %ref.tmp7)
          to label %invoke.cont9 unwind label %lpad8

invoke.cont9:                                     ; preds = %invoke.cont3
  call void @_ZNSaISt4pairIKN8facebook5velox4core18LocalPartitionNode4TypeENSt7__cxx1112basic_stringIcSt11char_traitsIcESaIcEEEEED2Ev(ptr noundef nonnull align 1 dereferenceable(1) %ref.tmp7) #5
  %array.begin = getelementptr inbounds [2 x %"struct.std::pair.761"], ptr %ref.tmp, i32 0, i32 0
  %4 = getelementptr inbounds %"struct.std::pair.761", ptr %array.begin, i64 2
  br label %arraydestroy.body10

arraydestroy.body10:                              ; preds = %arraydestroy.body10, %invoke.cont9
  %arraydestroy.elementPast11 = phi ptr [ %4, %invoke.cont9 ], [ %arraydestroy.element12, %arraydestroy.body10 ]
  %arraydestroy.element12 = getelementptr inbounds %"struct.std::pair.761", ptr %arraydestroy.elementPast11, i64 -1
  call void @_ZNSt4pairIKN8facebook5velox4core18LocalPartitionNode4TypeENSt7__cxx1112basic_stringIcSt11char_traitsIcESaIcEEEED2Ev(ptr noundef nonnull align 8 dereferenceable(40) %arraydestroy.element12) #5
  %arraydestroy.done13 = icmp eq ptr %arraydestroy.element12, %array.begin
  br i1 %arraydestroy.done13, label %arraydestroy.done14, label %arraydestroy.body10

arraydestroy.done14:                              ; preds = %arraydestroy.body10
  ret void

lpad:                                             ; preds = %invoke.cont, %entry
  %5 = landingpad { ptr, i32 }
          cleanup
  %6 = extractvalue { ptr, i32 } %5, 0
  store ptr %6, ptr %exn.slot, align 8
  %7 = extractvalue { ptr, i32 } %5, 1
  store i32 %7, ptr %ehselector.slot, align 4
  %8 = load ptr, ptr %arrayinit.endOfInit, align 8
  %arraydestroy.isempty = icmp eq ptr %arrayinit.begin, %8
  br i1 %arraydestroy.isempty, label %arraydestroy.done4, label %arraydestroy.body

arraydestroy.body:                                ; preds = %arraydestroy.body, %lpad
  %arraydestroy.elementPast = phi ptr [ %8, %lpad ], [ %arraydestroy.element, %arraydestroy.body ]
  %arraydestroy.element = getelementptr inbounds %"struct.std::pair.761", ptr %arraydestroy.elementPast, i64 -1
  call void @_ZNSt4pairIKN8facebook5velox4core18LocalPartitionNode4TypeENSt7__cxx1112basic_stringIcSt11char_traitsIcESaIcEEEED2Ev(ptr noundef nonnull align 8 dereferenceable(40) %arraydestroy.element) #5
  %arraydestroy.done = icmp eq ptr %arraydestroy.element, %arrayinit.begin
  br i1 %arraydestroy.done, label %arraydestroy.done4, label %arraydestroy.body

arraydestroy.done4:                               ; preds = %arraydestroy.body, %lpad
  br label %eh.resume

lpad8:                                            ; preds = %invoke.cont3
  %9 = landingpad { ptr, i32 }
          cleanup
  %10 = extractvalue { ptr, i32 } %9, 0
  store ptr %10, ptr %exn.slot, align 8
  %11 = extractvalue { ptr, i32 } %9, 1
  store i32 %11, ptr %ehselector.slot, align 4
  call void @_ZNSaISt4pairIKN8facebook5velox4core18LocalPartitionNode4TypeENSt7__cxx1112basic_stringIcSt11char_traitsIcESaIcEEEEED2Ev(ptr noundef nonnull align 1 dereferenceable(1) %ref.tmp7) #5
  %array.begin15 = getelementptr inbounds [2 x %"struct.std::pair.761"], ptr %ref.tmp, i32 0, i32 0
  %12 = getelementptr inbounds %"struct.std::pair.761", ptr %array.begin15, i64 2
  br label %arraydestroy.body16

arraydestroy.body16:                              ; preds = %arraydestroy.body16, %lpad8
  %arraydestroy.elementPast17 = phi ptr [ %12, %lpad8 ], [ %arraydestroy.element18, %arraydestroy.body16 ]
  %arraydestroy.element18 = getelementptr inbounds %"struct.std::pair.761", ptr %arraydestroy.elementPast17, i64 -1
  call void @_ZNSt4pairIKN8facebook5velox4core18LocalPartitionNode4TypeENSt7__cxx1112basic_stringIcSt11char_traitsIcESaIcEEEED2Ev(ptr noundef nonnull align 8 dereferenceable(40) %arraydestroy.element18) #5
  %arraydestroy.done19 = icmp eq ptr %arraydestroy.element18, %array.begin15
  br i1 %arraydestroy.done19, label %arraydestroy.done20, label %arraydestroy.body16

arraydestroy.done20:                              ; preds = %arraydestroy.body16
  br label %eh.resume

eh.resume:                                        ; preds = %arraydestroy.done20, %arraydestroy.done4
  %exn = load ptr, ptr %exn.slot, align 8
  %sel = load i32, ptr %ehselector.slot, align 4
  %lpad.val = insertvalue { ptr, i32 } poison, ptr %exn, 0
  %lpad.val21 = insertvalue { ptr, i32 } %lpad.val, i32 %sel, 1
  resume { ptr, i32 } %lpad.val21
}