; Function Attrs: mustprogress uwtable
define internal fastcc void @_ZN8facebook5velox4core12_GLOBAL__N_123localPartitionTypeNamesB5cxx11Ev(ptr noalias align 8 %agg.result) unnamed_addr #0 personality ptr @__gxx_personality_v0 {
entry:
  %ref.tmp = alloca [2 x %"struct.std::pair.761"], align 8
  %ref.tmp1 = alloca i32, align 4
  %ref.tmp2 = alloca i32, align 4
  %ref.tmp5 = alloca %"struct.std::hash.418", align 1
  %ref.tmp6 = alloca %"struct.std::equal_to.422", align 1
  %ref.tmp7 = alloca %"class.std::allocator.763", align 1
  store i32 0, ptr %ref.tmp1, align 4
  call void @_ZNSt4pairIKN8facebook5velox4core18LocalPartitionNode4TypeENSt7__cxx1112basic_stringIcSt11char_traitsIcESaIcEEEEC2IS4_RA7_KcTnNSt9enable_ifIXaaclsr5_PCCPE22_MoveConstructiblePairIT_T0_EEclsr5_PCCPE30_ImplicitlyMoveConvertiblePairISI_SJ_EEEbE4typeELb1EEEOSI_OSJ_(ptr noundef nonnull align 8 dereferenceable(40) %ref.tmp, ptr noundef nonnull align 4 dereferenceable(4) %ref.tmp1, ptr noundef nonnull align 1 dereferenceable(7) @.str.105)
  %arrayinit.element = getelementptr inbounds i8, ptr %ref.tmp, i64 40
  store i32 1, ptr %ref.tmp2, align 4
  invoke void @_ZNSt4pairIKN8facebook5velox4core18LocalPartitionNode4TypeENSt7__cxx1112basic_stringIcSt11char_traitsIcESaIcEEEEC2IS4_RA12_KcTnNSt9enable_ifIXaaclsr5_PCCPE22_MoveConstructiblePairIT_T0_EEclsr5_PCCPE30_ImplicitlyMoveConvertiblePairISI_SJ_EEEbE4typeELb1EEEOSI_OSJ_(ptr noundef nonnull align 8 dereferenceable(40) %arrayinit.element, ptr noundef nonnull align 4 dereferenceable(4) %ref.tmp2, ptr noundef nonnull align 1 dereferenceable(12) @.str.106)
          to label %invoke.cont3 unwind label %lpad

invoke.cont3:                                     ; preds = %entry
  %add.ptr.i.i.i = getelementptr inbounds i8, ptr %ref.tmp, i64 80
  invoke void @_ZNSt10_HashtableIN8facebook5velox4core18LocalPartitionNode4TypeESt4pairIKS4_NSt7__cxx1112basic_stringIcSt11char_traitsIcESaIcEEEESaISD_ENSt8__detail10_Select1stESt8equal_toIS4_ESt4hashIS4_ENSF_18_Mod_range_hashingENSF_20_Default_ranged_hashENSF_20_Prime_rehash_policyENSF_17_Hashtable_traitsILb0ELb0ELb1EEEEC2IPKSD_EET_SU_mRKSK_RKSI_RKSE_St17integral_constantIbLb1EE(ptr noundef nonnull align 8 dereferenceable(56) %agg.result, ptr noundef nonnull %ref.tmp, ptr noundef nonnull %add.ptr.i.i.i, i64 noundef 0, ptr noundef nonnull align 1 dereferenceable(1) %ref.tmp5, ptr noundef nonnull align 1 dereferenceable(1) %ref.tmp6, ptr noundef nonnull align 1 dereferenceable(1) %ref.tmp7)
          to label %arraydestroy.body10 unwind label %lpad8

arraydestroy.body10:                              ; preds = %invoke.cont3, %arraydestroy.body10
  %arraydestroy.elementPast11 = phi ptr [ %arraydestroy.element12, %arraydestroy.body10 ], [ %add.ptr.i.i.i, %invoke.cont3 ]
  %arraydestroy.element12 = getelementptr inbounds i8, ptr %arraydestroy.elementPast11, i64 -40
  %second.i = getelementptr inbounds i8, ptr %arraydestroy.elementPast11, i64 -32
  call void @_ZNSt7__cxx1112basic_stringIcSt11char_traitsIcESaIcEED1Ev(ptr noundef nonnull align 8 dereferenceable(32) %second.i) #30
  %arraydestroy.done13 = icmp eq ptr %arraydestroy.element12, %ref.tmp
  br i1 %arraydestroy.done13, label %arraydestroy.done14, label %arraydestroy.body10

arraydestroy.done14:                              ; preds = %arraydestroy.body10
  ret void

lpad:                                             ; preds = %entry
  %0 = landingpad { ptr, i32 }
          cleanup
  %second.i2 = getelementptr inbounds i8, ptr %ref.tmp, i64 8
  call void @_ZNSt7__cxx1112basic_stringIcSt11char_traitsIcESaIcEED1Ev(ptr noundef nonnull align 8 dereferenceable(32) %second.i2) #30
  br label %eh.resume

lpad8:                                            ; preds = %invoke.cont3
  %1 = landingpad { ptr, i32 }
          cleanup
  br label %arraydestroy.body16

arraydestroy.body16:                              ; preds = %arraydestroy.body16, %lpad8
  %arraydestroy.elementPast17 = phi ptr [ %add.ptr.i.i.i, %lpad8 ], [ %arraydestroy.element18, %arraydestroy.body16 ]
  %arraydestroy.element18 = getelementptr inbounds i8, ptr %arraydestroy.elementPast17, i64 -40
  %second.i3 = getelementptr inbounds i8, ptr %arraydestroy.elementPast17, i64 -32
  call void @_ZNSt7__cxx1112basic_stringIcSt11char_traitsIcESaIcEED1Ev(ptr noundef nonnull align 8 dereferenceable(32) %second.i3) #30
  %arraydestroy.done19 = icmp eq ptr %arraydestroy.element18, %ref.tmp
  br i1 %arraydestroy.done19, label %eh.resume, label %arraydestroy.body16

eh.resume:                                        ; preds = %arraydestroy.body16, %lpad
  %.pn = phi { ptr, i32 } [ %0, %lpad ], [ %1, %arraydestroy.body16 ]
  resume { ptr, i32 } %.pn
}